target datalayout = "e-m:e-p270:32:32-p271:32:32-p272:64:64-i64:64-i128:128-f80:128-n8:16:32:64-S128"
target triple = "x86_64-pc-linux-gnu"

%"struct.clang::TargetInfo::ConstraintInfo" = type { i32, i32, %struct.anon, %"class.llvm::SmallSet", %"class.std::__cxx11::basic_string", %"class.std::__cxx11::basic_string" }
%struct.anon = type { i32, i32, i8 }
%"class.llvm::SmallSet" = type { %"class.llvm::SmallVector", %"class.std::set" }
%"class.llvm::SmallVector" = type { %"class.llvm::SmallVectorImpl", %"struct.llvm::SmallVectorStorage" }
%"class.llvm::SmallVectorImpl" = type { %"class.llvm::SmallVectorTemplateBase" }
%"class.llvm::SmallVectorTemplateBase" = type { %"class.llvm::SmallVectorTemplateCommon" }
%"class.llvm::SmallVectorTemplateCommon" = type { %"class.llvm::SmallVectorBase" }
%"class.llvm::SmallVectorBase" = type { ptr, i32, i32 }
%"struct.llvm::SmallVectorStorage" = type { [16 x i8] }
%"class.std::set" = type { %"class.std::_Rb_tree" }
%"class.std::_Rb_tree" = type { %"struct.std::_Rb_tree<int, int, std::_Identity<int>, std::less<int>>::_Rb_tree_impl" }
%"struct.std::_Rb_tree<int, int, std::_Identity<int>, std::less<int>>::_Rb_tree_impl" = type { [8 x i8], %"struct.std::_Rb_tree_header" }
%"struct.std::_Rb_tree_header" = type { %"struct.std::_Rb_tree_node_base", i64 }
%"struct.std::_Rb_tree_node_base" = type { i32, ptr, ptr, ptr }
%"class.std::__cxx11::basic_string" = type { %"struct.std::__cxx11::basic_string<char>::_Alloc_hider", i64, %union.anon }
%"struct.std::__cxx11::basic_string<char>::_Alloc_hider" = type { ptr }
%union.anon = type { i64, [8 x i8] }
%"struct.std::pair.133" = type { %"class.llvm::SmallSetIterator", i8, [7 x i8] }
%"class.llvm::SmallSetIterator" = type <{ %union.anon.135, i8, [7 x i8] }>
%union.anon.135 = type { %"struct.std::_Rb_tree_const_iterator.136" }
%"struct.std::_Rb_tree_const_iterator.136" = type { ptr }

; Function Attrs: mustprogress nounwind uwtable
define linkonce_odr hidden void @_ZN4llvm16SmallSetIteratorIiLj4ESt4lessIiEED2Ev(ptr noundef nonnull align 8 dereferenceable(9) %0) unnamed_addr #0 comdat align 2 {
  %2 = alloca ptr, align 8
  store ptr %0, ptr %2, align 8
  %3 = load ptr, ptr %2, align 8
  %4 = getelementptr inbounds nuw %"class.llvm::SmallSetIterator", ptr %3, i32 0, i32 1
  %5 = load i8, ptr %4, align 8
  %6 = trunc i8 %5 to i1
  br i1 %6, label %7, label %8

7:                                                ; preds = %1
  br label %9

8:                                                ; preds = %1
  br label %9

9:                                                ; preds = %8, %7
  ret void
}

; Function Attrs: mustprogress nounwind uwtable
define linkonce_odr hidden void @_ZNSt4pairIN4llvm16SmallSetIteratorIiLj4ESt4lessIiEEEbED2Ev(ptr noundef nonnull align 8 dereferenceable(17) %0) unnamed_addr #0 comdat align 2 {
  %2 = alloca ptr, align 8
  store ptr %0, ptr %2, align 8
  %3 = load ptr, ptr %2, align 8
  %4 = getelementptr inbounds nuw %"struct.std::pair.133", ptr %3, i32 0, i32 0
  call void @_ZN4llvm16SmallSetIteratorIiLj4ESt4lessIiEED2Ev(ptr noundef nonnull align 8 dereferenceable(9) %4) #11
  ret void
}

; Function Attrs: mustprogress nounwind uwtable
define linkonce_odr hidden void @_ZN5clang10TargetInfo14ConstraintInfo15setAllowsMemoryEv(ptr noundef nonnull align 8 dereferenceable(168) %0) #0 comdat align 2 {
  %2 = alloca ptr, align 8
  store ptr %0, ptr %2, align 8
  %3 = load ptr, ptr %2, align 8
  %4 = getelementptr inbounds nuw %"struct.clang::TargetInfo::ConstraintInfo", ptr %3, i32 0, i32 0
  %5 = load i32, ptr %4, align 8
  %6 = or i32 %5, 1
  store i32 %6, ptr %4, align 8
  ret void
}

; Function Attrs: mustprogress nounwind uwtable
define linkonce_odr hidden void @_ZN5clang10TargetInfo14ConstraintInfo17setAllowsRegisterEv(ptr noundef nonnull align 8 dereferenceable(168) %0) #0 comdat align 2 {
  %2 = alloca ptr, align 8
  store ptr %0, ptr %2, align 8
  %3 = load ptr, ptr %2, align 8
  %4 = getelementptr inbounds nuw %"struct.clang::TargetInfo::ConstraintInfo", ptr %3, i32 0, i32 0
  %5 = load i32, ptr %4, align 8
  %6 = or i32 %5, 2
  store i32 %6, ptr %4, align 8
  ret void
}

; Function Attrs: mustprogress nounwind uwtable
define linkonce_odr hidden void @_ZN5clang10TargetInfo14ConstraintInfo20setRequiresImmediateEi(ptr noundef nonnull align 8 dereferenceable(168) %0, i32 noundef %1) #0 comdat align 2 {
  %3 = alloca ptr, align 8
  %4 = alloca i32, align 4
  %5 = alloca %"struct.std::pair.133", align 8
  store ptr %0, ptr %3, align 8
  store i32 %1, ptr %4, align 4
  %6 = load ptr, ptr %3, align 8
  %7 = getelementptr inbounds nuw %"struct.clang::TargetInfo::ConstraintInfo", ptr %6, i32 0, i32 0
  %8 = load i32, ptr %7, align 8
  %9 = or i32 %8, 16
  store i32 %9, ptr %7, align 8
  %10 = getelementptr inbounds nuw %"struct.clang::TargetInfo::ConstraintInfo", ptr %6, i32 0, i32 3
  call void @_ZN4llvm8SmallSetIiLj4ESt4lessIiEE6insertERKi(ptr dead_on_unwind writable sret(%"struct.std::pair.133") align 8 %5, ptr noundef nonnull align 8 dereferenceable(80) %10, ptr noundef nonnull align 4 dereferenceable(4) %4)
  call void @_ZNSt4pairIN4llvm16SmallSetIteratorIiLj4ESt4lessIiEEEbED2Ev(ptr noundef nonnull align 8 dereferenceable(17) %5) #11
  ret void
}

; Function Attrs: mustprogress nounwind uwtable
define linkonce_odr hidden void @_ZN5clang10TargetInfo14ConstraintInfo20setRequiresImmediateEii(ptr noundef nonnull align 8 dereferenceable(168) %0, i32 noundef %1, i32 noundef %2) #0 comdat align 2 {
  %4 = alloca ptr, align 8
  %5 = alloca i32, align 4
  %6 = alloca i32, align 4
  store ptr %0, ptr %4, align 8
  store i32 %1, ptr %5, align 4
  store i32 %2, ptr %6, align 4
  %7 = load ptr, ptr %4, align 8
  %8 = getelementptr inbounds nuw %"struct.clang::TargetInfo::ConstraintInfo", ptr %7, i32 0, i32 0
  %9 = load i32, ptr %8, align 8
  %10 = or i32 %9, 16
  store i32 %10, ptr %8, align 8
  %11 = load i32, ptr %5, align 4
  %12 = getelementptr inbounds nuw %"struct.clang::TargetInfo::ConstraintInfo", ptr %7, i32 0, i32 2
  %13 = getelementptr inbounds nuw %struct.anon, ptr %12, i32 0, i32 0
  store i32 %11, ptr %13, align 8
  %14 = load i32, ptr %6, align 4
  %15 = getelementptr inbounds nuw %"struct.clang::TargetInfo::ConstraintInfo", ptr %7, i32 0, i32 2
  %16 = getelementptr inbounds nuw %struct.anon, ptr %15, i32 0, i32 1
  store i32 %14, ptr %16, align 4
  %17 = getelementptr inbounds nuw %"struct.clang::TargetInfo::ConstraintInfo", ptr %7, i32 0, i32 2
  %18 = getelementptr inbounds nuw %struct.anon, ptr %17, i32 0, i32 2
  store i8 1, ptr %18, align 8
  ret void
}

; Function Attrs: mustprogress nounwind uwtable
define dso_local noundef zeroext i1 @_ZNK5clang7targets15RISCVTargetInfo21validateAsmConstraintERPKcRNS_10TargetInfo14ConstraintInfoE(ptr noundef nonnull align 8 dereferenceable(570) %0, ptr noundef nonnull align 8 dereferenceable(8) %1, ptr noundef nonnull align 8 dereferenceable(168) %2) unnamed_addr #0 align 2 {
  %4 = alloca i1, align 1
  %5 = alloca ptr, align 8
  %6 = alloca ptr, align 8
  %7 = alloca ptr, align 8
  store ptr %0, ptr %5, align 8
  store ptr %1, ptr %6, align 8
  store ptr %2, ptr %7, align 8
  %8 = load ptr, ptr %6, align 8
  %9 = load ptr, ptr %8, align 8
  %10 = load i8, ptr %9, align 1
  %11 = sext i8 %10 to i32
  switch i32 %11, label %12 [
    i32 73, label %13
    i32 74, label %15
    i32 75, label %17
    i32 102, label %19
    i32 65, label %21
    i32 115, label %23
    i32 83, label %23
    i32 118, label %25
  ]

12:                                               ; preds = %3
  store i1 false, ptr %4, align 1
  br label %45

13:                                               ; preds = %3
  %14 = load ptr, ptr %7, align 8
  call void @_ZN5clang10TargetInfo14ConstraintInfo20setRequiresImmediateEii(ptr noundef nonnull align 8 dereferenceable(168) %14, i32 noundef -2048, i32 noundef 2047)
  store i1 true, ptr %4, align 1
  br label %45

15:                                               ; preds = %3
  %16 = load ptr, ptr %7, align 8
  call void @_ZN5clang10TargetInfo14ConstraintInfo20setRequiresImmediateEi(ptr noundef nonnull align 8 dereferenceable(168) %16, i32 noundef 0)
  store i1 true, ptr %4, align 1
  br label %45

17:                                               ; preds = %3
  %18 = load ptr, ptr %7, align 8
  call void @_ZN5clang10TargetInfo14ConstraintInfo20setRequiresImmediateEii(ptr noundef nonnull align 8 dereferenceable(168) %18, i32 noundef 0, i32 noundef 31)
  store i1 true, ptr %4, align 1
  br label %45

19:                                               ; preds = %3
  %20 = load ptr, ptr %7, align 8
  call void @_ZN5clang10TargetInfo14ConstraintInfo17setAllowsRegisterEv(ptr noundef nonnull align 8 dereferenceable(168) %20)
  store i1 true, ptr %4, align 1
  br label %45

21:                                               ; preds = %3
  %22 = load ptr, ptr %7, align 8
  call void @_ZN5clang10TargetInfo14ConstraintInfo15setAllowsMemoryEv(ptr noundef nonnull align 8 dereferenceable(168) %22)
  store i1 true, ptr %4, align 1
  br label %45

23:                                               ; preds = %3, %3
  %24 = load ptr, ptr %7, align 8
  call void @_ZN5clang10TargetInfo14ConstraintInfo17setAllowsRegisterEv(ptr noundef nonnull align 8 dereferenceable(168) %24)
  store i1 true, ptr %4, align 1
  br label %45

25:                                               ; preds = %3
  %26 = load ptr, ptr %6, align 8
  %27 = load ptr, ptr %26, align 8
  %28 = getelementptr inbounds i8, ptr %27, i64 1
  %29 = load i8, ptr %28, align 1
  %30 = sext i8 %29 to i32
  %31 = icmp eq i32 %30, 114
  br i1 %31, label %39, label %32

32:                                               ; preds = %25
  %33 = load ptr, ptr %6, align 8
  %34 = load ptr, ptr %33, align 8
  %35 = getelementptr inbounds i8, ptr %34, i64 1
  %36 = load i8, ptr %35, align 1
  %37 = sext i8 %36 to i32
  %38 = icmp eq i32 %37, 109
  br i1 %38, label %39, label %44

39:                                               ; preds = %32, %25
  %40 = load ptr, ptr %7, align 8
  call void @_ZN5clang10TargetInfo14ConstraintInfo17setAllowsRegisterEv(ptr noundef nonnull align 8 dereferenceable(168) %40)
  %41 = load ptr, ptr %6, align 8
  %42 = load ptr, ptr %41, align 8
  %43 = getelementptr inbounds i8, ptr %42, i64 1
  store ptr %43, ptr %41, align 8
  store i1 true, ptr %4, align 1
  br label %45

44:                                               ; preds = %32
  store i1 false, ptr %4, align 1
  br label %45

45:                                               ; preds = %44, %39, %23, %21, %19, %17, %15, %13, %12
  %46 = load i1, ptr %4, align 1
  ret i1 %46
}