; Function Attrs: mustprogress nounwind uwtable
define dso_local noundef zeroext i1 @_ZNK5clang7targets15RISCVTargetInfo21validateAsmConstraintERPKcRNS_10TargetInfo14ConstraintInfoE(ptr nonnull readnone align 8 captures(none) %0, ptr noundef nonnull align 8 captures(none) dereferenceable(8) %1, ptr noundef nonnull align 8 dereferenceable(168) %2) unnamed_addr #1 align 2 {
  %4 = alloca i32, align 4
  %5 = alloca %"struct.std::pair.133", align 8
  %6 = load ptr, ptr %1, align 8
  %7 = load i8, ptr %6, align 1
  switch i8 %7, label %41 [
    i8 73, label %8
    i8 74, label %14
    i8 75, label %18
    i8 102, label %24
    i8 65, label %27
    i8 115, label %30
    i8 83, label %30
    i8 118, label %33
  ]

8:                                                ; preds = %3
  %9 = load i32, ptr %2, align 8
  %10 = or i32 %9, 16
  store i32 %10, ptr %2, align 8
  %11 = getelementptr inbounds nuw i8, ptr %2, i64 8
  store i32 -2048, ptr %11, align 8
  %12 = getelementptr inbounds nuw i8, ptr %2, i64 12
  store i32 2047, ptr %12, align 4
  %13 = getelementptr inbounds nuw i8, ptr %2, i64 16
  store i8 1, ptr %13, align 8
  br label %41

14:                                               ; preds = %3
  call void @llvm.lifetime.start.p0(i64 4, ptr nonnull %4)
  call void @llvm.lifetime.start.p0(i64 24, ptr nonnull %5)
  store i32 0, ptr %4, align 4
  %15 = load i32, ptr %2, align 8
  %16 = or i32 %15, 16
  store i32 %16, ptr %2, align 8
  %17 = getelementptr inbounds nuw i8, ptr %2, i64 24
  call void @_ZN4llvm8SmallSetIiLj4ESt4lessIiEE6insertERKi(ptr dead_on_unwind nonnull writable sret(%"struct.std::pair.133") align 8 %5, ptr noundef nonnull align 8 dereferenceable(80) %17, ptr noundef nonnull align 4 dereferenceable(4) %4)
  call void @llvm.lifetime.end.p0(i64 4, ptr nonnull %4)
  call void @llvm.lifetime.end.p0(i64 24, ptr nonnull %5)
  br label %41

18:                                               ; preds = %3
  %19 = load i32, ptr %2, align 8
  %20 = or i32 %19, 16
  store i32 %20, ptr %2, align 8
  %21 = getelementptr inbounds nuw i8, ptr %2, i64 8
  store i32 0, ptr %21, align 8
  %22 = getelementptr inbounds nuw i8, ptr %2, i64 12
  store i32 31, ptr %22, align 4
  %23 = getelementptr inbounds nuw i8, ptr %2, i64 16
  store i8 1, ptr %23, align 8
  br label %41

24:                                               ; preds = %3
  %25 = load i32, ptr %2, align 8
  %26 = or i32 %25, 2
  store i32 %26, ptr %2, align 8
  br label %41

27:                                               ; preds = %3
  %28 = load i32, ptr %2, align 8
  %29 = or i32 %28, 1
  store i32 %29, ptr %2, align 8
  br label %41

30:                                               ; preds = %3, %3
  %31 = load i32, ptr %2, align 8
  %32 = or i32 %31, 2
  store i32 %32, ptr %2, align 8
  br label %41

33:                                               ; preds = %3
  %34 = getelementptr inbounds nuw i8, ptr %6, i64 1
  %35 = load i8, ptr %34, align 1
  switch i8 %35, label %41 [
    i8 114, label %36
    i8 109, label %36
  ]

36:                                               ; preds = %33, %33
  %37 = load i32, ptr %2, align 8
  %38 = or i32 %37, 2
  store i32 %38, ptr %2, align 8
  %39 = load ptr, ptr %1, align 8
  %40 = getelementptr inbounds nuw i8, ptr %39, i64 1
  store ptr %40, ptr %1, align 8
  br label %41

41:                                               ; preds = %33, %3, %36, %30, %27, %24, %18, %14, %8
  %.0 = phi i1 [ true, %36 ], [ true, %30 ], [ true, %27 ], [ true, %24 ], [ true, %18 ], [ true, %14 ], [ true, %8 ], [ false, %3 ], [ false, %33 ]
  ret i1 %.0
}